; Function Attrs: nofree norecurse nosync nounwind memory(argmem: readwrite) uwtable
define internal void @_blend_RGB_G(ptr noundef readonly captures(none) %0, ptr noundef readonly captures(none) %1, ptr noundef writeonly captures(none) %2, ptr noalias noundef readonly captures(none) %3, i64 noundef %4) unnamed_addr #10 {
  %.not = icmp eq i64 %4, 0
  br i1 %.not, label %._crit_edge, label %.lr.ph

._crit_edge:                                      ; preds = %.lr.ph, %5
  ret void

.lr.ph:                                           ; preds = %5, %.lr.ph
  %.026 = phi i64 [ %26, %.lr.ph ], [ 0, %5 ]
  %.02425 = phi i64 [ %27, %.lr.ph ], [ 0, %5 ]
  %6 = getelementptr inbounds nuw float, ptr %3, i64 %.026
  %7 = load float, ptr %6, align 4, !tbaa !36
  %8 = getelementptr inbounds nuw float, ptr %0, i64 %.02425
  %9 = load float, ptr %8, align 4, !tbaa !36
  %10 = getelementptr inbounds nuw float, ptr %2, i64 %.02425
  store float %9, ptr %10, align 4, !tbaa !36
  %11 = or disjoint i64 %.02425, 1
  %12 = getelementptr inbounds nuw float, ptr %0, i64 %11
  %13 = load float, ptr %12, align 4, !tbaa !36
  %14 = getelementptr inbounds nuw float, ptr %1, i64 %11
  %15 = load float, ptr %14, align 4, !tbaa !36
  %16 = fsub reassoc nsz arcp contract afn float %15, %13
  %17 = fmul reassoc nsz arcp contract afn float %16, %7
  %18 = fadd reassoc nsz arcp contract afn float %17, %13
  %19 = getelementptr inbounds nuw float, ptr %2, i64 %11
  store float %18, ptr %19, align 4, !tbaa !36
  %20 = or disjoint i64 %.02425, 2
  %21 = getelementptr inbounds nuw float, ptr %0, i64 %20
  %22 = load float, ptr %21, align 4, !tbaa !36
  %23 = getelementptr inbounds nuw float, ptr %2, i64 %20
  store float %22, ptr %23, align 4, !tbaa !36
  %24 = or disjoint i64 %.02425, 3
  %25 = getelementptr inbounds nuw float, ptr %2, i64 %24
  store float %7, ptr %25, align 4, !tbaa !36
  %26 = add nuw i64 %.026, 1
  %27 = add i64 %.02425, 4
  %exitcond.not = icmp eq i64 %26, %4
  br i1 %exitcond.not, label %._crit_edge, label %.lr.ph
}